target datalayout = "e-m:e-p270:32:32-p271:32:32-p272:64:64-i64:64-i128:128-f80:128-n8:16:32:64-S128"
target triple = "x86_64-pc-linux-gnu"

%struct.GG_State = type { %struct.lua_State, %struct.global_State, %struct.jit_State, [64 x i16], [243 x ptr], [57 x i32] }
%struct.lua_State = type { %struct.GCRef, i8, i8, i8, i8, %struct.MRef, %struct.GCRef, ptr, ptr, %struct.MRef, %struct.MRef, %struct.GCRef, %struct.GCRef, ptr, i32 }
%struct.MRef = type { i64 }
%struct.GCRef = type { i64 }
%struct.global_State = type { ptr, ptr, %struct.GCState, %struct.GCstr, i8, i8, i8, i8, %struct.StrInternState, i32, %struct.GCRef, %struct.SBuf, %union.TValue, %union.TValue, %struct.Node, %union.TValue, %struct.GCupval, i32, i32, ptr, ptr, ptr, i32, i32, %struct.GCRef, %struct.MRef, %struct.MRef, %struct.PRNGState, [39 x %struct.GCRef] }
%struct.GCState = type { i64, i64, i8, i8, i8, i8, i32, %struct.GCRef, %struct.MRef, %struct.GCRef, %struct.GCRef, %struct.GCRef, %struct.GCRef, i64, i64, i32, i32, %struct.MRef }
%struct.GCstr = type { %struct.GCRef, i8, i8, i8, i8, i32, i32, i32 }
%struct.StrInternState = type { ptr, i32, i32, i32, i8, i8, i8, i8, i64 }
%struct.SBuf = type { ptr, ptr, ptr, %struct.MRef }
%struct.Node = type { %union.TValue, %union.TValue, %struct.MRef }
%union.TValue = type { i64 }
%struct.GCupval = type { %struct.GCRef, i8, i8, i8, i8, %union.anon, %struct.MRef, i32 }
%union.anon = type { %struct.anon.1 }
%struct.anon.1 = type { %struct.GCRef, %struct.GCRef }
%struct.PRNGState = type { [4 x i64] }
%struct.jit_State = type { %struct.GCtrace, ptr, ptr, ptr, ptr, ptr, ptr, i32, i32, i32, i8, i8, %struct.IRType1, i8, %struct.FoldState, ptr, i32, i32, i32, i32, i32, i32, i32, [1 x i32], [5 x %union.TValue], [3 x %union.TValue], ptr, i32, i32, i32, i32, ptr, ptr, i32, i32, i8, ptr, i32, i32, i16, [101 x i16], [258 x i32], [15 x i32], [16 x ptr], [64 x %struct.HotPenalty], i32, [16 x %struct.BPropEntry], i32, %struct.ScEvEntry, ptr, i32, i32, i32, ptr, i32, i32, ptr, ptr, ptr, i64, i64, %union.TValue, ptr, i32, i32 }
%struct.GCtrace = type { %struct.GCRef, i8, i8, i16, i32, i32, %struct.GCRef, ptr, i32, i32, ptr, ptr, %struct.GCRef, %struct.MRef, i32, i32, ptr, i32, i16, i16, i16, i16, i16, i16, i16, i8, i8, i8, i8 }
%struct.IRType1 = type { i8 }
%struct.FoldState = type { %union.IRIns, [2 x %union.IRIns], [2 x %union.IRIns] }
%union.IRIns = type { %struct.GCRef }
%struct.HotPenalty = type { %struct.MRef, i16, i16 }
%struct.BPropEntry = type { i16, i16, i32 }
%struct.ScEvEntry = type { %struct.MRef, i16, i16, i16, i16, %struct.IRType1, i8 }

; Function Attrs: nounwind uwtable
define dso_local i32 @lua_sethook(ptr noundef %0, ptr noundef %1, i32 noundef %2, i32 noundef %3) #0 {
  %5 = alloca ptr, align 8
  %6 = alloca ptr, align 8
  %7 = alloca i32, align 4
  %8 = alloca i32, align 4
  %9 = alloca ptr, align 8
  store ptr %0, ptr %5, align 8, !tbaa !61
  store ptr %1, ptr %6, align 8, !tbaa !9
  store i32 %2, ptr %7, align 4, !tbaa !10
  store i32 %3, ptr %8, align 4, !tbaa !10
  call void @llvm.lifetime.start.p0(i64 8, ptr %9) #7
  %10 = load ptr, ptr %5, align 8, !tbaa !61
  %11 = getelementptr inbounds nuw %struct.lua_State, ptr %10, i32 0, i32 5
  %12 = getelementptr inbounds nuw %struct.MRef, ptr %11, i32 0, i32 0
  %13 = load i64, ptr %12, align 8, !tbaa !62
  %14 = inttoptr i64 %13 to ptr
  store ptr %14, ptr %9, align 8, !tbaa !48
  %15 = load i32, ptr %7, align 4, !tbaa !10
  %16 = and i32 %15, 15
  store i32 %16, ptr %7, align 4, !tbaa !10
  %17 = load ptr, ptr %6, align 8, !tbaa !9
  %18 = icmp eq ptr %17, null
  br i1 %18, label %22, label %19

19:                                               ; preds = %4
  %20 = load i32, ptr %7, align 4, !tbaa !10
  %21 = icmp eq i32 %20, 0
  br i1 %21, label %22, label %23

22:                                               ; preds = %19, %4
  store i32 0, ptr %7, align 4, !tbaa !10
  store ptr null, ptr %6, align 8, !tbaa !9
  br label %23

23:                                               ; preds = %22, %19
  %24 = load ptr, ptr %6, align 8, !tbaa !9
  %25 = load ptr, ptr %9, align 8, !tbaa !48
  %26 = getelementptr inbounds nuw %struct.global_State, ptr %25, i32 0, i32 19
  store ptr %24, ptr %26, align 8, !tbaa !79
  %27 = load i32, ptr %8, align 4, !tbaa !10
  %28 = load ptr, ptr %9, align 8, !tbaa !48
  %29 = getelementptr inbounds nuw %struct.global_State, ptr %28, i32 0, i32 18
  store i32 %27, ptr %29, align 4, !tbaa !80
  %30 = load ptr, ptr %9, align 8, !tbaa !48
  %31 = getelementptr inbounds nuw %struct.global_State, ptr %30, i32 0, i32 17
  store i32 %27, ptr %31, align 8, !tbaa !81
  %32 = load ptr, ptr %9, align 8, !tbaa !48
  %33 = getelementptr inbounds nuw %struct.global_State, ptr %32, i32 0, i32 5
  %34 = load i8, ptr %33, align 1, !tbaa !57
  %35 = zext i8 %34 to i32
  %36 = and i32 %35, -16
  %37 = load i32, ptr %7, align 4, !tbaa !10
  %38 = or i32 %36, %37
  %39 = trunc i32 %38 to i8
  %40 = load ptr, ptr %9, align 8, !tbaa !48
  %41 = getelementptr inbounds nuw %struct.global_State, ptr %40, i32 0, i32 5
  store i8 %39, ptr %41, align 1, !tbaa !57
  %42 = load ptr, ptr %9, align 8, !tbaa !48
  %43 = getelementptr inbounds i8, ptr %42, i64 -96
  %44 = getelementptr inbounds nuw %struct.GG_State, ptr %43, i32 0, i32 2
  %45 = getelementptr inbounds nuw %struct.jit_State, ptr %44, i32 0, i32 17
  %46 = load i32, ptr %45, align 4, !tbaa !56
  %47 = and i32 %46, -17
  store i32 %47, ptr %45, align 4, !tbaa !56
  %48 = load ptr, ptr %9, align 8, !tbaa !48
  call void @lj_dispatch_update(ptr noundef %48)
  call void @llvm.lifetime.end.p0(i64 8, ptr %9) #7
  ret i32 1
}