; Function Attrs: nofree norecurse nosync nounwind memory(readwrite, inaccessiblemem: none) uwtable
define dso_local noundef i32 @lua_sethook(ptr noundef readonly captures(none) %0, ptr noundef %1, i32 noundef %2, i32 noundef %3) local_unnamed_addr #7 {
  %5 = getelementptr inbounds nuw i8, ptr %0, i64 16
  %6 = load i64, ptr %5, align 8, !tbaa !54
  %7 = and i32 %2, 15
  %8 = icmp eq ptr %1, null
  %9 = icmp eq i32 %7, 0
  %spec.select17 = select i1 %9, ptr null, ptr %1
  %10 = inttoptr i64 %6 to ptr
  %11 = getelementptr inbounds nuw i8, ptr %10, i64 336
  store ptr %spec.select17, ptr %11, align 8, !tbaa !66
  %12 = getelementptr inbounds nuw i8, ptr %10, i64 332
  store i32 %3, ptr %12, align 4, !tbaa !67
  %13 = getelementptr inbounds nuw i8, ptr %10, i64 328
  store i32 %3, ptr %13, align 8, !tbaa !68
  %14 = getelementptr inbounds nuw i8, ptr %10, i64 145
  %15 = load i8, ptr %14, align 1, !tbaa !50
  %16 = and i8 %15, -16
  %17 = trunc nuw nsw i32 %7 to i8
  %18 = select i1 %8, i8 0, i8 %17
  %19 = or disjoint i8 %16, %18
  store i8 %19, ptr %14, align 1, !tbaa !50
  %20 = getelementptr inbounds nuw i8, ptr %10, i64 972
  %21 = load i32, ptr %20, align 4, !tbaa !49
  %22 = and i32 %21, -17
  store i32 %22, ptr %20, align 4, !tbaa !49
  tail call void @lj_dispatch_update(ptr noundef %10)
  ret i32 1
}